; Function Attrs: mustprogress nounwind uwtable
define dso_local void @_ZN5clang14TextNodeDumper29VisitMaterializeTemporaryExprEPKNS_24MaterializeTemporaryExprE(ptr noundef nonnull align 8 dereferenceable(1168) %0, ptr nocapture noundef readonly %1) local_unnamed_addr #0 align 2 {
  %3 = getelementptr inbounds nuw i8, ptr %1, i64 16
  %.0.copyload.i.i.i.i.i.i.i.i.i.i = load i64, ptr %3, align 8
  %4 = and i64 %.0.copyload.i.i.i.i.i.i.i.i.i.i, 4
  %5 = icmp eq i64 %4, 0
  br i1 %5, label %_ZNK5clang24MaterializeTemporaryExpr16getExtendingDeclEv.exit.thread, label %_ZNK5clang24MaterializeTemporaryExpr16getExtendingDeclEv.exit

_ZNK5clang24MaterializeTemporaryExpr16getExtendingDeclEv.exit: ; preds = %2
  %6 = and i64 %.0.copyload.i.i.i.i.i.i.i.i.i.i, -8
  %7 = inttoptr i64 %6 to ptr
  %8 = getelementptr inbounds nuw i8, ptr %7, i64 48
  %9 = load ptr, ptr %8, align 8
  %.not = icmp eq ptr %9, null
  br i1 %.not, label %_ZNK5clang24MaterializeTemporaryExpr16getExtendingDeclEv.exit.thread, label %10

10:                                               ; preds = %_ZNK5clang24MaterializeTemporaryExpr16getExtendingDeclEv.exit
  %11 = getelementptr inbounds nuw i8, ptr %0, i64 1096
  %12 = load ptr, ptr %11, align 8
  %13 = getelementptr inbounds nuw i8, ptr %12, i64 24
  %14 = load ptr, ptr %13, align 8
  %15 = getelementptr inbounds nuw i8, ptr %12, i64 32
  %16 = load ptr, ptr %15, align 8
  %17 = ptrtoint ptr %14 to i64
  %18 = ptrtoint ptr %16 to i64
  %19 = sub i64 %17, %18
  %20 = icmp ult i64 %19, 13
  br i1 %20, label %21, label %23

21:                                               ; preds = %10
  %22 = tail call noundef nonnull align 8 dereferenceable(48) ptr @_ZN4llvm11raw_ostream5writeEPKcm(ptr noundef nonnull align 8 dereferenceable(48) %12, ptr noundef nonnull @.str.628, i64 noundef 13) #18
  br label %_ZN4llvm11raw_ostreamlsEPKc.exit

23:                                               ; preds = %10
  tail call void @llvm.memcpy.p0.p0.i64(ptr noundef nonnull align 1 dereferenceable(13) %16, ptr noundef nonnull align 1 dereferenceable(13) @.str.628, i64 13, i1 false)
  %24 = load ptr, ptr %15, align 8
  %25 = getelementptr inbounds i8, ptr %24, i64 13
  store ptr %25, ptr %15, align 8
  br label %_ZN4llvm11raw_ostreamlsEPKc.exit

_ZN4llvm11raw_ostreamlsEPKc.exit:                 ; preds = %21, %23
  tail call void @_ZN5clang14TextNodeDumper15dumpBareDeclRefEPKNS_4DeclE(ptr noundef nonnull align 8 dereferenceable(1168) %0, ptr noundef nonnull %9)
  br label %_ZNK5clang24MaterializeTemporaryExpr16getExtendingDeclEv.exit.thread

_ZNK5clang24MaterializeTemporaryExpr16getExtendingDeclEv.exit.thread: ; preds = %2, %_ZN4llvm11raw_ostreamlsEPKc.exit, %_ZNK5clang24MaterializeTemporaryExpr16getExtendingDeclEv.exit
  ret void
}